; Function Attrs: mustprogress uwtable
define hidden void @_ZN3sat12local_search15add_propagationENS_7literalE(ptr noundef nonnull align 8 dereferenceable(232) %0, i32 %1) local_unnamed_addr #3 align 2 {
  %3 = lshr i32 %1, 1
  %4 = getelementptr inbounds nuw i8, ptr %0, i64 40
  %5 = load ptr, ptr %4, align 8, !tbaa !49
  %6 = zext nneg i32 %3 to i64
  %7 = getelementptr inbounds nuw %"struct.sat::local_search::var_info", ptr %5, i64 %6
  %8 = load i8, ptr %7, align 8, !tbaa !54, !range !7, !noundef !8
  %9 = trunc nuw i8 %8 to i1
  %10 = and i32 %1, 1
  %11 = icmp ne i32 %10, 0
  %12 = xor i1 %11, %9
  br i1 %12, label %14, label %13

13:                                               ; preds = %2
  tail call void @_Z26notify_assertion_violationPKciS0_(ptr noundef nonnull @.str.1, i32 noundef 210, ptr noundef nonnull @.str.5)
  tail call void @_Z18invoke_exit_actionj(i32 noundef 114)
  %.pre = load ptr, ptr %4, align 8, !tbaa !49
  br label %14

14:                                               ; preds = %13, %2
  %15 = phi ptr [ %.pre, %13 ], [ %5, %2 ]
  %16 = zext nneg i32 %10 to i64
  %17 = getelementptr inbounds nuw %"struct.sat::local_search::var_info", ptr %15, i64 %6, i32 11, i64 %16
  %18 = load ptr, ptr %17, align 8, !tbaa !15
  %19 = icmp eq ptr %18, null
  br i1 %19, label %._crit_edge, label %_ZN6vectorIN3sat7literalELb0EjE3endEv.exit

_ZN6vectorIN3sat7literalELb0EjE3endEv.exit:       ; preds = %14
  %20 = getelementptr inbounds i8, ptr %18, i64 -4
  %21 = load i32, ptr %20, align 4, !tbaa !13
  %22 = zext i32 %21 to i64
  %23 = getelementptr inbounds nuw %"class.sat::literal", ptr %18, i64 %22
  %.not10 = icmp eq i32 %21, 0
  br i1 %.not10, label %._crit_edge, label %.lr.ph

.lr.ph:                                           ; preds = %_ZN6vectorIN3sat7literalELb0EjE3endEv.exit
  %24 = getelementptr inbounds nuw i8, ptr %0, i64 80
  br label %25

._crit_edge:                                      ; preds = %52, %14, %_ZN6vectorIN3sat7literalELb0EjE3endEv.exit
  ret void

25:                                               ; preds = %.lr.ph, %52
  %.011 = phi ptr [ %18, %.lr.ph ], [ %53, %52 ]
  %26 = load i32, ptr %.011, align 4, !tbaa !13
  %27 = lshr i32 %26, 1
  %28 = load ptr, ptr %4, align 8, !tbaa !49
  %29 = zext nneg i32 %27 to i64
  %30 = getelementptr inbounds nuw %"struct.sat::local_search::var_info", ptr %28, i64 %29
  %31 = load i8, ptr %30, align 8, !tbaa !54, !range !7, !noundef !8
  %32 = trunc nuw i8 %31 to i1
  %33 = and i32 %26, 1
  %34 = icmp ne i32 %33, 0
  %35 = xor i1 %34, %32
  br i1 %35, label %52, label %36

36:                                               ; preds = %25
  %37 = load ptr, ptr %24, align 8, !tbaa !15
  %38 = icmp eq ptr %37, null
  br i1 %38, label %45, label %39

39:                                               ; preds = %36
  %40 = getelementptr inbounds i8, ptr %37, i64 -4
  %41 = load i32, ptr %40, align 4, !tbaa !13
  %42 = getelementptr inbounds i8, ptr %37, i64 -8
  %43 = load i32, ptr %42, align 4, !tbaa !13
  %44 = icmp eq i32 %41, %43
  br i1 %44, label %45, label %_ZN6vectorIN3sat7literalELb0EjE9push_backERKS1_.exit

45:                                               ; preds = %39, %36
  tail call void @_ZN6vectorIN3sat7literalELb0EjE13expand_vectorEv(ptr noundef nonnull align 8 dereferenceable(8) %24)
  %.pre.i = load ptr, ptr %24, align 8, !tbaa !15
  %.phi.trans.insert.i = getelementptr inbounds i8, ptr %.pre.i, i64 -4
  %.pre2.i = load i32, ptr %.phi.trans.insert.i, align 4, !tbaa !13
  br label %_ZN6vectorIN3sat7literalELb0EjE9push_backERKS1_.exit

_ZN6vectorIN3sat7literalELb0EjE9push_backERKS1_.exit: ; preds = %39, %45
  %46 = phi i32 [ %.pre2.i, %45 ], [ %41, %39 ]
  %47 = phi ptr [ %.pre.i, %45 ], [ %37, %39 ]
  %48 = getelementptr inbounds i8, ptr %47, i64 -4
  %49 = zext i32 %46 to i64
  %50 = getelementptr inbounds nuw %"class.sat::literal", ptr %47, i64 %49
  store i32 %26, ptr %50, align 4, !tbaa !13
  %51 = add i32 %46, 1
  store i32 %51, ptr %48, align 4, !tbaa !13
  br label %52

52:                                               ; preds = %_ZN6vectorIN3sat7literalELb0EjE9push_backERKS1_.exit, %25
  %53 = getelementptr inbounds nuw i8, ptr %.011, i64 4
  %.not = icmp eq ptr %53, %23
  br i1 %.not, label %._crit_edge, label %25
}